target datalayout = "e-m:e-p270:32:32-p271:32:32-p272:64:64-i64:64-i128:128-f80:128-n8:16:32:64-S128"
target triple = "x86_64-pc-linux-gnu"

%"class.cvc5::internal::Rational" = type { %class.__gmp_expr }
%class.__gmp_expr = type { [1 x %struct.__mpq_struct] }
%struct.__mpq_struct = type { %struct.__mpz_struct, %struct.__mpz_struct }
%struct.__mpz_struct = type { i32, i32, ptr }

; Function Attrs: mustprogress nounwind uwtable
define linkonce_odr hidden void @_ZN10__gmp_exprIA1_12__mpq_structS1_ED2Ev(ptr noundef nonnull align 8 dereferenceable(32) %0) unnamed_addr #3 comdat align 2 personality ptr @__gxx_personality_v0 {
  %2 = alloca ptr, align 8
  store ptr %0, ptr %2, align 8, !tbaa !29
  %3 = load ptr, ptr %2, align 8
  %4 = getelementptr inbounds nuw %class.__gmp_expr, ptr %3, i32 0, i32 0
  %5 = getelementptr inbounds [1 x %struct.__mpq_struct], ptr %4, i64 0, i64 0
  invoke void @__gmpq_clear(ptr noundef %5)
          to label %6 unwind label %7

6:                                                ; preds = %1
  ret void

7:                                                ; preds = %1
  %8 = landingpad { ptr, i32 }
          catch ptr null
  %9 = extractvalue { ptr, i32 } %8, 0
  call void @__clang_call_terminate(ptr %9) #16
  unreachable
}

; Function Attrs: mustprogress nounwind uwtable
define linkonce_odr hidden noundef ptr @_ZNK10__gmp_exprIA1_12__mpq_structS1_E9get_mpq_tEv(ptr noundef nonnull align 8 dereferenceable(32) %0) #3 comdat align 2 {
  %2 = alloca ptr, align 8
  store ptr %0, ptr %2, align 8, !tbaa !29
  %3 = load ptr, ptr %2, align 8
  %4 = getelementptr inbounds nuw %class.__gmp_expr, ptr %3, i32 0, i32 0
  %5 = getelementptr inbounds [1 x %struct.__mpq_struct], ptr %4, i64 0, i64 0
  ret ptr %5
}

; Function Attrs: mustprogress nounwind uwtable
define linkonce_odr hidden void @_ZN4cvc58internal8RationalD2Ev(ptr noundef nonnull align 8 dereferenceable(32) %0) unnamed_addr #3 comdat align 2 {
  %2 = alloca ptr, align 8
  store ptr %0, ptr %2, align 8, !tbaa !8
  %3 = load ptr, ptr %2, align 8
  %4 = getelementptr inbounds nuw %"class.cvc5::internal::Rational", ptr %3, i32 0, i32 0
  call void @_ZN10__gmp_exprIA1_12__mpq_structS1_ED2Ev(ptr noundef nonnull align 8 dereferenceable(32) %4) #15
  ret void
}

; Function Attrs: mustprogress nounwind uwtable
define linkonce_odr hidden noundef i32 @_ZNK4cvc58internal8Rational3cmpERKS1_(ptr noundef nonnull align 8 dereferenceable(32) %0, ptr noundef nonnull align 8 dereferenceable(32) %1) #3 comdat align 2 {
  %3 = alloca ptr, align 8
  %4 = alloca ptr, align 8
  store ptr %0, ptr %3, align 8, !tbaa !8
  store ptr %1, ptr %4, align 8, !tbaa !8
  %5 = load ptr, ptr %3, align 8
  %6 = getelementptr inbounds nuw %"class.cvc5::internal::Rational", ptr %5, i32 0, i32 0
  %7 = call noundef ptr @_ZNK10__gmp_exprIA1_12__mpq_structS1_E9get_mpq_tEv(ptr noundef nonnull align 8 dereferenceable(32) %6)
  %8 = load ptr, ptr %4, align 8, !tbaa !8
  %9 = getelementptr inbounds nuw %"class.cvc5::internal::Rational", ptr %8, i32 0, i32 0
  %10 = call noundef ptr @_ZNK10__gmp_exprIA1_12__mpq_structS1_E9get_mpq_tEv(ptr noundef nonnull align 8 dereferenceable(32) %9)
  %11 = call i32 @__gmpq_cmp(ptr noundef %7, ptr noundef %10) #17
  ret i32 %11
}

; Function Attrs: mustprogress uwtable
define linkonce_odr hidden noundef i32 @_ZNK4cvc58internal8Rational3sgnEv(ptr noundef nonnull align 8 dereferenceable(32) %0) #0 comdat align 2 {
  %2 = alloca ptr, align 8
  store ptr %0, ptr %2, align 8, !tbaa !8
  %3 = load ptr, ptr %2, align 8
  %4 = getelementptr inbounds nuw %"class.cvc5::internal::Rational", ptr %3, i32 0, i32 0
  %5 = call noundef ptr @_ZNK10__gmp_exprIA1_12__mpq_structS1_E9get_mpq_tEv(ptr noundef nonnull align 8 dereferenceable(32) %4)
  %6 = getelementptr inbounds nuw %struct.__mpq_struct, ptr %5, i32 0, i32 0
  %7 = getelementptr inbounds nuw %struct.__mpz_struct, ptr %6, i32 0, i32 1
  %8 = load i32, ptr %7, align 4, !tbaa !23
  %9 = icmp slt i32 %8, 0
  br i1 %9, label %10, label %11

10:                                               ; preds = %1
  br label %19

11:                                               ; preds = %1
  %12 = getelementptr inbounds nuw %"class.cvc5::internal::Rational", ptr %3, i32 0, i32 0
  %13 = call noundef ptr @_ZNK10__gmp_exprIA1_12__mpq_structS1_E9get_mpq_tEv(ptr noundef nonnull align 8 dereferenceable(32) %12)
  %14 = getelementptr inbounds nuw %struct.__mpq_struct, ptr %13, i32 0, i32 0
  %15 = getelementptr inbounds nuw %struct.__mpz_struct, ptr %14, i32 0, i32 1
  %16 = load i32, ptr %15, align 4, !tbaa !23
  %17 = icmp sgt i32 %16, 0
  %18 = zext i1 %17 to i32
  br label %19

19:                                               ; preds = %11, %10
  %20 = phi i32 [ -1, %10 ], [ %18, %11 ]
  ret i32 %20
}

; Function Attrs: mustprogress uwtable
define hidden noundef i32 @_ZNK4cvc58internal8Rational6absCmpERKS1_(ptr noundef nonnull align 8 dereferenceable(32) %0, ptr noundef nonnull align 8 dereferenceable(32) %1) #0 align 2 personality ptr @__gxx_personality_v0 {
  %3 = alloca i32, align 4
  %4 = alloca ptr, align 8
  %5 = alloca ptr, align 8
  %6 = alloca ptr, align 8
  %7 = alloca i32, align 4
  %8 = alloca i32, align 4
  %9 = alloca i32, align 4
  %10 = alloca %"class.cvc5::internal::Rational", align 8
  %11 = alloca ptr, align 8
  %12 = alloca i32, align 4
  %13 = alloca %"class.cvc5::internal::Rational", align 8
  store ptr %0, ptr %4, align 8, !tbaa !8
  store ptr %1, ptr %5, align 8, !tbaa !8
  %14 = load ptr, ptr %4, align 8
  call void @llvm.lifetime.start.p0(i64 8, ptr %6) #15
  store ptr %14, ptr %6, align 8, !tbaa !8
  call void @llvm.lifetime.start.p0(i64 4, ptr %7) #15
  %15 = load ptr, ptr %6, align 8, !tbaa !8
  %16 = call noundef i32 @_ZNK4cvc58internal8Rational3sgnEv(ptr noundef nonnull align 8 dereferenceable(32) %15)
  store i32 %16, ptr %7, align 4, !tbaa !12
  call void @llvm.lifetime.start.p0(i64 4, ptr %8) #15
  %17 = load ptr, ptr %5, align 8, !tbaa !8
  %18 = call noundef i32 @_ZNK4cvc58internal8Rational3sgnEv(ptr noundef nonnull align 8 dereferenceable(32) %17)
  store i32 %18, ptr %8, align 4, !tbaa !12
  %19 = load i32, ptr %7, align 4, !tbaa !12
  %20 = icmp eq i32 %19, 0
  br i1 %20, label %21, label %25

21:                                               ; preds = %2
  %22 = load i32, ptr %8, align 4, !tbaa !12
  %23 = icmp eq i32 %22, 0
  %24 = select i1 %23, i32 0, i32 -1
  store i32 %24, ptr %3, align 4
  store i32 1, ptr %9, align 4
  br label %73

25:                                               ; preds = %2
  %26 = load i32, ptr %8, align 4, !tbaa !12
  %27 = icmp eq i32 %26, 0
  br i1 %27, label %28, label %29

28:                                               ; preds = %25
  store i32 1, ptr %3, align 4
  store i32 1, ptr %9, align 4
  br label %73

29:                                               ; preds = %25
  %30 = load i32, ptr %7, align 4, !tbaa !12
  %31 = icmp sgt i32 %30, 0
  br i1 %31, label %32, label %39

32:                                               ; preds = %29
  %33 = load i32, ptr %8, align 4, !tbaa !12
  %34 = icmp sgt i32 %33, 0
  br i1 %34, label %35, label %39

35:                                               ; preds = %32
  %36 = load ptr, ptr %6, align 8, !tbaa !8
  %37 = load ptr, ptr %5, align 8, !tbaa !8
  %38 = call noundef i32 @_ZNK4cvc58internal8Rational3cmpERKS1_(ptr noundef nonnull align 8 dereferenceable(32) %36, ptr noundef nonnull align 8 dereferenceable(32) %37)
  store i32 %38, ptr %3, align 4
  store i32 1, ptr %9, align 4
  br label %73

39:                                               ; preds = %32, %29
  %40 = load i32, ptr %7, align 4, !tbaa !12
  %41 = icmp slt i32 %40, 0
  br i1 %41, label %42, label %49

42:                                               ; preds = %39
  %43 = load i32, ptr %8, align 4, !tbaa !12
  %44 = icmp slt i32 %43, 0
  br i1 %44, label %45, label %49

45:                                               ; preds = %42
  %46 = load ptr, ptr %5, align 8, !tbaa !8
  %47 = load ptr, ptr %6, align 8, !tbaa !8
  %48 = call noundef i32 @_ZNK4cvc58internal8Rational3cmpERKS1_(ptr noundef nonnull align 8 dereferenceable(32) %46, ptr noundef nonnull align 8 dereferenceable(32) %47)
  store i32 %48, ptr %3, align 4
  store i32 1, ptr %9, align 4
  br label %73

49:                                               ; preds = %42, %39
  %50 = load i32, ptr %7, align 4, !tbaa !12
  %51 = icmp slt i32 %50, 0
  br i1 %51, label %52, label %64

52:                                               ; preds = %49
  %53 = load i32, ptr %8, align 4, !tbaa !12
  %54 = icmp sgt i32 %53, 0
  br i1 %54, label %55, label %64

55:                                               ; preds = %52
  call void @llvm.lifetime.start.p0(i64 32, ptr %10) #15
  %56 = load ptr, ptr %6, align 8, !tbaa !8
  call void @_ZNK4cvc58internal8RationalngEv(ptr dead_on_unwind writable sret(%"class.cvc5::internal::Rational") align 8 %10, ptr noundef nonnull align 8 dereferenceable(32) %56)
  %57 = load ptr, ptr %5, align 8, !tbaa !8
  %58 = invoke noundef i32 @_ZNK4cvc58internal8Rational3cmpERKS1_(ptr noundef nonnull align 8 dereferenceable(32) %10, ptr noundef nonnull align 8 dereferenceable(32) %57)
          to label %59 unwind label %60

59:                                               ; preds = %55
  store i32 %58, ptr %3, align 4
  store i32 1, ptr %9, align 4
  call void @_ZN4cvc58internal8RationalD2Ev(ptr noundef nonnull align 8 dereferenceable(32) %10) #15
  call void @llvm.lifetime.end.p0(i64 32, ptr %10) #15
  br label %73

60:                                               ; preds = %55
  %61 = landingpad { ptr, i32 }
          cleanup
  %62 = extractvalue { ptr, i32 } %61, 0
  store ptr %62, ptr %11, align 8
  %63 = extractvalue { ptr, i32 } %61, 1
  store i32 %63, ptr %12, align 4
  call void @_ZN4cvc58internal8RationalD2Ev(ptr noundef nonnull align 8 dereferenceable(32) %10) #15
  call void @llvm.lifetime.end.p0(i64 32, ptr %10) #15
  br label %75

64:                                               ; preds = %52, %49
  call void @llvm.lifetime.start.p0(i64 32, ptr %13) #15
  %65 = load ptr, ptr %5, align 8, !tbaa !8
  call void @_ZNK4cvc58internal8RationalngEv(ptr dead_on_unwind writable sret(%"class.cvc5::internal::Rational") align 8 %13, ptr noundef nonnull align 8 dereferenceable(32) %65)
  %66 = load ptr, ptr %6, align 8, !tbaa !8
  %67 = invoke noundef i32 @_ZNK4cvc58internal8Rational3cmpERKS1_(ptr noundef nonnull align 8 dereferenceable(32) %66, ptr noundef nonnull align 8 dereferenceable(32) %13)
          to label %68 unwind label %69

68:                                               ; preds = %64
  store i32 %67, ptr %3, align 4
  store i32 1, ptr %9, align 4
  call void @_ZN4cvc58internal8RationalD2Ev(ptr noundef nonnull align 8 dereferenceable(32) %13) #15
  call void @llvm.lifetime.end.p0(i64 32, ptr %13) #15
  br label %73

69:                                               ; preds = %64
  %70 = landingpad { ptr, i32 }
          cleanup
  %71 = extractvalue { ptr, i32 } %70, 0
  store ptr %71, ptr %11, align 8
  %72 = extractvalue { ptr, i32 } %70, 1
  store i32 %72, ptr %12, align 4
  call void @_ZN4cvc58internal8RationalD2Ev(ptr noundef nonnull align 8 dereferenceable(32) %13) #15
  call void @llvm.lifetime.end.p0(i64 32, ptr %13) #15
  br label %75

73:                                               ; preds = %68, %59, %45, %35, %28, %21
  call void @llvm.lifetime.end.p0(i64 4, ptr %8) #15
  call void @llvm.lifetime.end.p0(i64 4, ptr %7) #15
  call void @llvm.lifetime.end.p0(i64 8, ptr %6) #15
  %74 = load i32, ptr %3, align 4
  ret i32 %74

75:                                               ; preds = %69, %60
  call void @llvm.lifetime.end.p0(i64 4, ptr %8) #15
  call void @llvm.lifetime.end.p0(i64 4, ptr %7) #15
  call void @llvm.lifetime.end.p0(i64 8, ptr %6) #15
  br label %76

76:                                               ; preds = %75
  %77 = load ptr, ptr %11, align 8
  %78 = load i32, ptr %12, align 4
  %79 = insertvalue { ptr, i32 } poison, ptr %77, 0
  %80 = insertvalue { ptr, i32 } %79, i32 %78, 1
  resume { ptr, i32 } %80
}