; Function Attrs: mustprogress uwtable
define hidden noundef i32 @_ZNK4cvc58internal8Rational6absCmpERKS1_(ptr noundef nonnull align 8 dereferenceable(32) %0, ptr noundef nonnull align 8 dereferenceable(32) %1) local_unnamed_addr #0 align 2 personality ptr @__gxx_personality_v0 {
  %3 = alloca %"class.cvc5::internal::Rational", align 8
  %4 = alloca %"class.cvc5::internal::Rational", align 8
  %5 = getelementptr inbounds nuw i8, ptr %0, i64 4
  %6 = load i32, ptr %5, align 4, !tbaa !15
  %.inv.i = icmp slt i32 %6, 0
  %7 = tail call i32 @llvm.scmp.i32.i32(i32 %6, i32 0)
  %8 = getelementptr inbounds nuw i8, ptr %1, i64 4
  %9 = load i32, ptr %8, align 4, !tbaa !15
  %10 = tail call i32 @llvm.scmp.i32.i32(i32 %9, i32 0)
  %11 = icmp eq i32 %6, 0
  br i1 %11, label %12, label %15

12:                                               ; preds = %2
  %13 = icmp ne i32 %9, 0
  %14 = sext i1 %13 to i32
  br label %37

15:                                               ; preds = %2
  %16 = icmp eq i32 %9, 0
  br i1 %16, label %37, label %17

17:                                               ; preds = %15
  %18 = icmp sgt i32 %6, 0
  %19 = icmp sgt i32 %9, 0
  %or.cond = and i1 %18, %19
  br i1 %or.cond, label %20, label %22

20:                                               ; preds = %17
  %21 = tail call noundef i32 @__gmpq_cmp(ptr noundef nonnull align 8 dereferenceable(32) %0, ptr noundef nonnull align 8 dereferenceable(32) %1) #19
  br label %37

22:                                               ; preds = %17
  %23 = and i32 %10, %7
  %or.cond3.not = icmp sgt i32 %23, -1
  br i1 %or.cond3.not, label %26, label %24

24:                                               ; preds = %22
  %25 = tail call noundef i32 @__gmpq_cmp(ptr noundef nonnull align 8 dereferenceable(32) %1, ptr noundef nonnull align 8 dereferenceable(32) %0) #19
  br label %37

26:                                               ; preds = %22
  %or.cond5 = and i1 %.inv.i, %19
  br i1 %or.cond5, label %27, label %32

27:                                               ; preds = %26
  call void @llvm.lifetime.start.p0(i64 32, ptr nonnull %3) #15
  call void @_ZNK4cvc58internal8RationalngEv(ptr dead_on_unwind nonnull writable sret(%"class.cvc5::internal::Rational") align 8 %3, ptr noundef nonnull align 8 dereferenceable(32) %0)
  %28 = call noundef i32 @__gmpq_cmp(ptr noundef nonnull align 8 dereferenceable(32) %3, ptr noundef nonnull align 8 dereferenceable(32) %1) #19
  invoke void @__gmpq_clear(ptr noundef nonnull align 8 dereferenceable(32) %3)
          to label %_ZN4cvc58internal8RationalD2Ev.exit unwind label %29

29:                                               ; preds = %27
  %30 = landingpad { ptr, i32 }
          catch ptr null
  %31 = extractvalue { ptr, i32 } %30, 0
  call void @__clang_call_terminate(ptr %31) #18
  unreachable

_ZN4cvc58internal8RationalD2Ev.exit:              ; preds = %27
  call void @llvm.lifetime.end.p0(i64 32, ptr nonnull %3) #15
  br label %37

32:                                               ; preds = %26
  call void @llvm.lifetime.start.p0(i64 32, ptr nonnull %4) #15
  call void @_ZNK4cvc58internal8RationalngEv(ptr dead_on_unwind nonnull writable sret(%"class.cvc5::internal::Rational") align 8 %4, ptr noundef nonnull align 8 dereferenceable(32) %1)
  %33 = call noundef i32 @__gmpq_cmp(ptr noundef nonnull align 8 dereferenceable(32) %0, ptr noundef nonnull align 8 dereferenceable(32) %4) #19
  invoke void @__gmpq_clear(ptr noundef nonnull align 8 dereferenceable(32) %4)
          to label %_ZN4cvc58internal8RationalD2Ev.exit28 unwind label %34

34:                                               ; preds = %32
  %35 = landingpad { ptr, i32 }
          catch ptr null
  %36 = extractvalue { ptr, i32 } %35, 0
  call void @__clang_call_terminate(ptr %36) #18
  unreachable

_ZN4cvc58internal8RationalD2Ev.exit28:            ; preds = %32
  call void @llvm.lifetime.end.p0(i64 32, ptr nonnull %4) #15
  br label %37

37:                                               ; preds = %15, %_ZN4cvc58internal8RationalD2Ev.exit28, %_ZN4cvc58internal8RationalD2Ev.exit, %24, %20, %12
  %.0 = phi i32 [ %14, %12 ], [ %21, %20 ], [ %25, %24 ], [ %28, %_ZN4cvc58internal8RationalD2Ev.exit ], [ %33, %_ZN4cvc58internal8RationalD2Ev.exit28 ], [ 1, %15 ]
  ret i32 %.0
}